; Function Attrs: mustprogress uwtable
define dso_local noundef zeroext i1 @_ZNK19cmIfFunctionBlocker14ArgumentsMatchERK18cmListFileFunctionR10cmMakefile(ptr noundef nonnull align 8 dereferenceable(179) %0, ptr nocapture noundef nonnull readonly align 8 dereferenceable(16) %1, ptr nocapture nonnull readnone align 8 %2) unnamed_addr #3 align 2 {
  %4 = load ptr, ptr %1, align 8
  %5 = getelementptr inbounds i8, ptr %4, i64 80
  %6 = load ptr, ptr %5, align 8
  %7 = getelementptr inbounds i8, ptr %4, i64 88
  %8 = load ptr, ptr %7, align 8
  %9 = icmp eq ptr %6, %8
  br i1 %9, label %13, label %10

10:                                               ; preds = %3
  %11 = getelementptr inbounds i8, ptr %0, i64 152
  %12 = tail call noundef zeroext i1 @_ZSteqI18cmListFileArgumentSaIS0_EEbRKSt6vectorIT_T0_ES7_(ptr noundef nonnull align 8 dereferenceable(24) %5, ptr noundef nonnull align 8 dereferenceable(24) %11)
  br label %13

13:                                               ; preds = %10, %3
  %14 = phi i1 [ true, %3 ], [ %12, %10 ]
  ret i1 %14
}